; ModuleID = '8/1150.c'
source_filename = "8/1150.c"
target datalayout = "e-m:e-p270:32:32-p271:32:32-p272:64:64-i64:64-f80:128-n8:16:32:64-S128"
target triple = "x86_64-pc-linux-gnu"

@.str = private unnamed_addr constant [5 x i8] c"%d%d\00", align 1
@.str.1 = private unnamed_addr constant [2 x i8] c"\0A\00", align 1
@.str.2 = private unnamed_addr constant [3 x i8] c"%d\00", align 1
@.str.3 = private unnamed_addr constant [4 x i8] c" %d\00", align 1

; Function Attrs: noinline nounwind uwtable
define dso_local i32 @main() #0 {
  %1 = alloca i32, align 4
  %2 = alloca i32, align 4
  %3 = alloca i32, align 4
  %4 = alloca i32, align 4
  %5 = alloca i8*, align 8
  %6 = alloca i64, align 8
  %7 = alloca i64, align 8
  %8 = alloca i32, align 4
  %9 = alloca i32, align 4
  store i32 0, i32* %1, align 4
  %10 = call i32 (i8*, ...) @__isoc99_scanf(i8* getelementptr inbounds ([5 x i8], [5 x i8]* @.str, i64 0, i64 0), i32* %2, i32* %3)
  %11 = call i32 (i8*, ...) @printf(i8* getelementptr inbounds ([2 x i8], [2 x i8]* @.str.1, i64 0, i64 0))
  %12 = load i32, i32* %2, align 4
  %13 = zext i32 %12 to i64
  %14 = call i8* @llvm.stacksave()
  store i8* %14, i8** %5, align 8
  %15 = alloca i32, i64 %13, align 16
  store i64 %13, i64* %6, align 8
  %16 = load i32, i32* %3, align 4
  %17 = zext i32 %16 to i64
  %18 = alloca i32, i64 %17, align 16
  store i64 %17, i64* %7, align 8
  store i32 0, i32* %8, align 4
  br label %19

19:                                               ; preds = %28, %0
  %20 = load i32, i32* %8, align 4
  %21 = load i32, i32* %2, align 4
  %22 = icmp slt i32 %20, %21
  br i1 %22, label %23, label %31

23:                                               ; preds = %19
  %24 = load i32, i32* %8, align 4
  %25 = sext i32 %24 to i64
  %26 = getelementptr inbounds i32, i32* %15, i64 %25
  %27 = call i32 (i8*, ...) @__isoc99_scanf(i8* getelementptr inbounds ([3 x i8], [3 x i8]* @.str.2, i64 0, i64 0), i32* %26)
  br label %28

28:                                               ; preds = %23
  %29 = load i32, i32* %8, align 4
  %30 = add nsw i32 %29, 1
  store i32 %30, i32* %8, align 4
  br label %19

31:                                               ; preds = %19
  %32 = call i32 (i8*, ...) @printf(i8* getelementptr inbounds ([2 x i8], [2 x i8]* @.str.1, i64 0, i64 0))
  store i32 0, i32* %8, align 4
  br label %33

33:                                               ; preds = %42, %31
  %34 = load i32, i32* %8, align 4
  %35 = load i32, i32* %3, align 4
  %36 = icmp slt i32 %34, %35
  br i1 %36, label %37, label %45

37:                                               ; preds = %33
  %38 = load i32, i32* %8, align 4
  %39 = sext i32 %38 to i64
  %40 = getelementptr inbounds i32, i32* %18, i64 %39
  %41 = call i32 (i8*, ...) @__isoc99_scanf(i8* getelementptr inbounds ([3 x i8], [3 x i8]* @.str.2, i64 0, i64 0), i32* %40)
  br label %42

42:                                               ; preds = %37
  %43 = load i32, i32* %8, align 4
  %44 = add nsw i32 %43, 1
  store i32 %44, i32* %8, align 4
  br label %33

45:                                               ; preds = %33
  store i32 1, i32* %8, align 4
  br label %46

46:                                               ; preds = %91, %45
  %47 = load i32, i32* %8, align 4
  %48 = load i32, i32* %2, align 4
  %49 = icmp slt i32 %47, %48
  br i1 %49, label %50, label %94

50:                                               ; preds = %46
  store i32 0, i32* %9, align 4
  br label %51

51:                                               ; preds = %87, %50
  %52 = load i32, i32* %9, align 4
  %53 = load i32, i32* %2, align 4
  %54 = load i32, i32* %8, align 4
  %55 = sub nsw i32 %53, %54
  %56 = icmp slt i32 %52, %55
  br i1 %56, label %57, label %90

57:                                               ; preds = %51
  %58 = load i32, i32* %9, align 4
  %59 = sext i32 %58 to i64
  %60 = getelementptr inbounds i32, i32* %15, i64 %59
  %61 = load i32, i32* %60, align 4
  %62 = load i32, i32* %9, align 4
  %63 = add nsw i32 %62, 1
  %64 = sext i32 %63 to i64
  %65 = getelementptr inbounds i32, i32* %15, i64 %64
  %66 = load i32, i32* %65, align 4
  %67 = icmp sgt i32 %61, %66
  br i1 %67, label %68, label %86

68:                                               ; preds = %57
  %69 = load i32, i32* %9, align 4
  %70 = sext i32 %69 to i64
  %71 = getelementptr inbounds i32, i32* %15, i64 %70
  %72 = load i32, i32* %71, align 4
  store i32 %72, i32* %4, align 4
  %73 = load i32, i32* %9, align 4
  %74 = add nsw i32 %73, 1
  %75 = sext i32 %74 to i64
  %76 = getelementptr inbounds i32, i32* %15, i64 %75
  %77 = load i32, i32* %76, align 4
  %78 = load i32, i32* %9, align 4
  %79 = sext i32 %78 to i64
  %80 = getelementptr inbounds i32, i32* %15, i64 %79
  store i32 %77, i32* %80, align 4
  %81 = load i32, i32* %4, align 4
  %82 = load i32, i32* %9, align 4
  %83 = add nsw i32 %82, 1
  %84 = sext i32 %83 to i64
  %85 = getelementptr inbounds i32, i32* %15, i64 %84
  store i32 %81, i32* %85, align 4
  br label %86

86:                                               ; preds = %68, %57
  br label %87

87:                                               ; preds = %86
  %88 = load i32, i32* %9, align 4
  %89 = add nsw i32 %88, 1
  store i32 %89, i32* %9, align 4
  br label %51

90:                                               ; preds = %51
  br label %91

91:                                               ; preds = %90
  %92 = load i32, i32* %8, align 4
  %93 = add nsw i32 %92, 1
  store i32 %93, i32* %8, align 4
  br label %46

94:                                               ; preds = %46
  store i32 1, i32* %8, align 4
  br label %95

95:                                               ; preds = %140, %94
  %96 = load i32, i32* %8, align 4
  %97 = load i32, i32* %3, align 4
  %98 = icmp slt i32 %96, %97
  br i1 %98, label %99, label %143

99:                                               ; preds = %95
  store i32 0, i32* %9, align 4
  br label %100

100:                                              ; preds = %136, %99
  %101 = load i32, i32* %9, align 4
  %102 = load i32, i32* %3, align 4
  %103 = load i32, i32* %8, align 4
  %104 = sub nsw i32 %102, %103
  %105 = icmp slt i32 %101, %104
  br i1 %105, label %106, label %139

106:                                              ; preds = %100
  %107 = load i32, i32* %9, align 4
  %108 = sext i32 %107 to i64
  %109 = getelementptr inbounds i32, i32* %18, i64 %108
  %110 = load i32, i32* %109, align 4
  %111 = load i32, i32* %9, align 4
  %112 = add nsw i32 %111, 1
  %113 = sext i32 %112 to i64
  %114 = getelementptr inbounds i32, i32* %18, i64 %113
  %115 = load i32, i32* %114, align 4
  %116 = icmp sgt i32 %110, %115
  br i1 %116, label %117, label %135

117:                                              ; preds = %106
  %118 = load i32, i32* %9, align 4
  %119 = sext i32 %118 to i64
  %120 = getelementptr inbounds i32, i32* %18, i64 %119
  %121 = load i32, i32* %120, align 4
  store i32 %121, i32* %4, align 4
  %122 = load i32, i32* %9, align 4
  %123 = add nsw i32 %122, 1
  %124 = sext i32 %123 to i64
  %125 = getelementptr inbounds i32, i32* %18, i64 %124
  %126 = load i32, i32* %125, align 4
  %127 = load i32, i32* %9, align 4
  %128 = sext i32 %127 to i64
  %129 = getelementptr inbounds i32, i32* %18, i64 %128
  store i32 %126, i32* %129, align 4
  %130 = load i32, i32* %4, align 4
  %131 = load i32, i32* %9, align 4
  %132 = add nsw i32 %131, 1
  %133 = sext i32 %132 to i64
  %134 = getelementptr inbounds i32, i32* %18, i64 %133
  store i32 %130, i32* %134, align 4
  br label %135

135:                                              ; preds = %117, %106
  br label %136

136:                                              ; preds = %135
  %137 = load i32, i32* %9, align 4
  %138 = add nsw i32 %137, 1
  store i32 %138, i32* %9, align 4
  br label %100

139:                                              ; preds = %100
  br label %140

140:                                              ; preds = %139
  %141 = load i32, i32* %8, align 4
  %142 = add nsw i32 %141, 1
  store i32 %142, i32* %8, align 4
  br label %95

143:                                              ; preds = %95
  %144 = getelementptr inbounds i32, i32* %15, i64 0
  %145 = load i32, i32* %144, align 16
  %146 = call i32 (i8*, ...) @printf(i8* getelementptr inbounds ([3 x i8], [3 x i8]* @.str.2, i64 0, i64 0), i32 %145)
  store i32 1, i32* %8, align 4
  br label %147

147:                                              ; preds = %157, %143
  %148 = load i32, i32* %8, align 4
  %149 = load i32, i32* %2, align 4
  %150 = icmp slt i32 %148, %149
  br i1 %150, label %151, label %160

151:                                              ; preds = %147
  %152 = load i32, i32* %8, align 4
  %153 = sext i32 %152 to i64
  %154 = getelementptr inbounds i32, i32* %15, i64 %153
  %155 = load i32, i32* %154, align 4
  %156 = call i32 (i8*, ...) @printf(i8* getelementptr inbounds ([4 x i8], [4 x i8]* @.str.3, i64 0, i64 0), i32 %155)
  br label %157

157:                                              ; preds = %151
  %158 = load i32, i32* %8, align 4
  %159 = add nsw i32 %158, 1
  store i32 %159, i32* %8, align 4
  br label %147

160:                                              ; preds = %147
  store i32 0, i32* %8, align 4
  br label %161

161:                                              ; preds = %171, %160
  %162 = load i32, i32* %8, align 4
  %163 = load i32, i32* %3, align 4
  %164 = icmp slt i32 %162, %163
  br i1 %164, label %165, label %174

165:                                              ; preds = %161
  %166 = load i32, i32* %8, align 4
  %167 = sext i32 %166 to i64
  %168 = getelementptr inbounds i32, i32* %18, i64 %167
  %169 = load i32, i32* %168, align 4
  %170 = call i32 (i8*, ...) @printf(i8* getelementptr inbounds ([4 x i8], [4 x i8]* @.str.3, i64 0, i64 0), i32 %169)
  br label %171

171:                                              ; preds = %165
  %172 = load i32, i32* %8, align 4
  %173 = add nsw i32 %172, 1
  store i32 %173, i32* %8, align 4
  br label %161

174:                                              ; preds = %161
  %175 = load i8*, i8** %5, align 8
  call void @llvm.stackrestore(i8* %175)
  %176 = load i32, i32* %1, align 4
  ret i32 %176
}

declare dso_local i32 @__isoc99_scanf(i8*, ...) #1

declare dso_local i32 @printf(i8*, ...) #1

; Function Attrs: nounwind
declare i8* @llvm.stacksave() #2

; Function Attrs: nounwind
declare void @llvm.stackrestore(i8*) #2


!llvm.module.flags = !{!0}
!llvm.ident = !{!1}

!0 = !{i32 1, !"wchar_size", i32 4}
!1 = !{!"clang version 10.0.0-4ubuntu1 "}
